; Function Attrs: nounwind uwtable
define ptr @l_Lean_Elab_Tactic_mkGrindParams___lambda__2(ptr noundef %0, ptr noundef readonly captures(none) %1, i8 noundef zeroext %2, ptr noundef %3, ptr noundef %4, ptr noundef %5, ptr noundef %6, ptr noundef %7, ptr noundef %8) local_unnamed_addr #0 {
  %10 = icmp eq i8 %2, 0
  br i1 %10, label %11, label %43

11:                                               ; preds = %9
  %12 = tail call ptr @l_Lean_Meta_Grind_getCasesTypes___rarg(ptr noundef %7, ptr noundef %8) #5
  %13 = getelementptr inbounds nuw i8, ptr %12, i64 8
  %14 = load ptr, ptr %13, align 8, !tbaa !4
  %15 = ptrtoint ptr %14 to i64
  %16 = and i64 %15, 1
  %.not = icmp eq i64 %16, 0
  br i1 %.not, label %17, label %lean_inc.exit30

17:                                               ; preds = %11
  %.val.i = load i32, ptr %14, align 4, !tbaa !8
  %18 = icmp sgt i32 %.val.i, 0
  br i1 %18, label %19, label %21, !prof !11

19:                                               ; preds = %17
  %20 = add nuw i32 %.val.i, 1
  store i32 %20, ptr %14, align 4, !tbaa !8
  br label %lean_inc.exit30

21:                                               ; preds = %17
  %.not.i31 = icmp eq i32 %.val.i, 0
  br i1 %.not.i31, label %lean_inc.exit30, label %22

22:                                               ; preds = %21
  tail call void @lean_inc_ref_cold(ptr noundef nonnull %14) #5
  br label %lean_inc.exit30

lean_inc.exit30:                                  ; preds = %22, %21, %19, %11
  %23 = getelementptr inbounds nuw i8, ptr %12, i64 16
  %24 = load ptr, ptr %23, align 8, !tbaa !4
  %25 = ptrtoint ptr %24 to i64
  %26 = and i64 %25, 1
  %.not35 = icmp eq i64 %26, 0
  br i1 %.not35, label %27, label %lean_inc.exit

27:                                               ; preds = %lean_inc.exit30
  %.val.i32 = load i32, ptr %24, align 4, !tbaa !8
  %28 = icmp sgt i32 %.val.i32, 0
  br i1 %28, label %29, label %31, !prof !11

29:                                               ; preds = %27
  %30 = add nuw i32 %.val.i32, 1
  store i32 %30, ptr %24, align 4, !tbaa !8
  br label %lean_inc.exit

31:                                               ; preds = %27
  %.not.i33 = icmp eq i32 %.val.i32, 0
  br i1 %.not.i33, label %lean_inc.exit, label %32

32:                                               ; preds = %31
  tail call void @lean_inc_ref_cold(ptr noundef nonnull %24) #5
  br label %lean_inc.exit

lean_inc.exit:                                    ; preds = %32, %31, %29, %lean_inc.exit30
  %33 = ptrtoint ptr %12 to i64
  %34 = and i64 %33, 1
  %.not36 = icmp eq i64 %34, 0
  br i1 %.not36, label %35, label %lean_dec.exit

35:                                               ; preds = %lean_inc.exit
  %36 = load i32, ptr %12, align 4, !tbaa !8
  %37 = icmp sgt i32 %36, 1
  br i1 %37, label %38, label %40, !prof !11

38:                                               ; preds = %35
  %39 = add nsw i32 %36, -1
  store i32 %39, ptr %12, align 4, !tbaa !8
  br label %lean_dec.exit

40:                                               ; preds = %35
  %.not.i = icmp eq i32 %36, 0
  br i1 %.not.i, label %lean_dec.exit, label %41

41:                                               ; preds = %40
  tail call void @lean_dec_ref_cold(ptr noundef nonnull %12) #5
  br label %lean_dec.exit

lean_dec.exit:                                    ; preds = %41, %40, %38, %lean_inc.exit
  %42 = tail call ptr @l_Lean_Elab_Tactic_mkGrindParams___lambda__1(ptr noundef %0, ptr noundef %3, ptr noundef %1, i8 noundef zeroext 0, ptr noundef %14, ptr noundef %4, ptr noundef %5, ptr noundef %6, ptr noundef %7, ptr noundef %24)
  br label %46

43:                                               ; preds = %9
  %44 = load ptr, ptr @l_Lean_Elab_Tactic_mkGrindParams___lambda__2___closed__2, align 8, !tbaa !4
  %45 = tail call ptr @l_Lean_Elab_Tactic_mkGrindParams___lambda__1(ptr noundef %0, ptr noundef %3, ptr noundef %1, i8 noundef zeroext %2, ptr noundef %44, ptr noundef %4, ptr noundef %5, ptr noundef %6, ptr noundef %7, ptr noundef %8)
  br label %46

46:                                               ; preds = %43, %lean_dec.exit
  %.0 = phi ptr [ %42, %lean_dec.exit ], [ %45, %43 ]
  ret ptr %.0
}